target datalayout = "e-m:e-p270:32:32-p271:32:32-p272:64:64-i64:64-i128:128-f80:128-n8:16:32:64-S128"
target triple = "x86_64-pc-linux-gnu"

%struct.bb_state = type { %struct.bb_config, ptr, ptr, ptr, %union.pthread_mutex_t, i64, i64, ptr, i64, i64, i64, ptr, %union.pthread_cond_t, i8, %union.pthread_mutex_t, i64, i32, i32, i64, i64 }
%struct.bb_config = type { ptr, ptr, ptr, ptr, ptr, ptr, ptr, ptr, i32, ptr, ptr, i64, i32, ptr, i32, i32, i32, i32, ptr, ptr, ptr, ptr, i32 }
%union.pthread_cond_t = type { %struct.__pthread_cond_s }
%struct.__pthread_cond_s = type { %union.__atomic_wide_counter, %union.__atomic_wide_counter, [2 x i32], [2 x i32], i32, i32, [2 x i32] }
%union.__atomic_wide_counter = type { i64 }
%union.pthread_mutex_t = type { %struct.__pthread_mutex_s }
%struct.__pthread_mutex_s = type { i32, i32, i32, i32, i32, i16, i16, %struct.__pthread_internal_list }
%struct.__pthread_internal_list = type { ptr, ptr }
%struct.bb_user = type { i32, ptr, i64, i32 }
%struct.burst_buffer_pool_t = type { i64, ptr, i64, i64, i64 }

@.str = private unnamed_addr constant [22 x i8] c"burst_buffer_common.c\00", align 1
@__func__.bb_find_user_rec = private unnamed_addr constant [17 x i8] c"bb_find_user_rec\00", align 1
@plugin_type = external constant [0 x i8], align 1
@.str.95 = private unnamed_addr constant [30 x i8] c"%s: Unable to located pool %s\00", align 1
@.str.96 = private unnamed_addr constant [25 x i8] c"%s: used_space underflow\00", align 1
@__func__.bb_limit_rem = private unnamed_addr constant [13 x i8] c"bb_limit_rem\00", align 1
@.str.97 = private unnamed_addr constant [43 x i8] c"%s: %s: unfree_space underflow (%lu < %lu)\00", align 1
@.str.98 = private unnamed_addr constant [37 x i8] c"%s: used_space underflow for pool %s\00", align 1
@.str.99 = private unnamed_addr constant [43 x i8] c"%s: %s: unfree_space underflow for pool %s\00", align 1
@.str.100 = private unnamed_addr constant [36 x i8] c"%s: user limit underflow for uid %u\00", align 1

; Function Attrs: nounwind uwtable
define dso_local ptr @bb_find_user_rec(i32 noundef %0, ptr noundef %1) #0 {
  %3 = alloca ptr, align 8
  %4 = alloca i32, align 4
  %5 = alloca ptr, align 8
  %6 = alloca i32, align 4
  %7 = alloca ptr, align 8
  %8 = alloca i32, align 4
  store i32 %0, ptr %4, align 4
  store ptr %1, ptr %5, align 8
  call void @llvm.lifetime.start.p0(i64 4, ptr %6) #9
  %9 = load i32, ptr %4, align 4
  %10 = urem i32 %9, 100
  store i32 %10, ptr %6, align 4
  call void @llvm.lifetime.start.p0(i64 8, ptr %7) #9
  %11 = load ptr, ptr %5, align 8
  %12 = getelementptr inbounds nuw %struct.bb_state, ptr %11, i32 0, i32 3
  %13 = load ptr, ptr %12, align 8
  %14 = load i32, ptr %6, align 4
  %15 = sext i32 %14 to i64
  %16 = getelementptr inbounds ptr, ptr %13, i64 %15
  %17 = load ptr, ptr %16, align 8
  store ptr %17, ptr %7, align 8
  br label %18

18:                                               ; preds = %29, %2
  %19 = load ptr, ptr %7, align 8
  %20 = icmp ne ptr %19, null
  br i1 %20, label %21, label %33

21:                                               ; preds = %18
  %22 = load ptr, ptr %7, align 8
  %23 = getelementptr inbounds nuw %struct.bb_user, ptr %22, i32 0, i32 3
  %24 = load i32, ptr %23, align 8
  %25 = load i32, ptr %4, align 4
  %26 = icmp eq i32 %24, %25
  br i1 %26, label %27, label %29

27:                                               ; preds = %21
  %28 = load ptr, ptr %7, align 8
  store ptr %28, ptr %3, align 8
  store i32 1, ptr %8, align 4
  br label %57

29:                                               ; preds = %21
  %30 = load ptr, ptr %7, align 8
  %31 = getelementptr inbounds nuw %struct.bb_user, ptr %30, i32 0, i32 1
  %32 = load ptr, ptr %31, align 8
  store ptr %32, ptr %7, align 8
  br label %18, !llvm.loop !25

33:                                               ; preds = %18
  %34 = call ptr @slurm_xcalloc(i64 noundef 1, i64 noundef 32, i1 noundef zeroext true, i1 noundef zeroext false, ptr noundef @.str, i32 noundef 315, ptr noundef @__func__.bb_find_user_rec)
  store ptr %34, ptr %7, align 8
  %35 = load ptr, ptr %7, align 8
  %36 = getelementptr inbounds nuw %struct.bb_user, ptr %35, i32 0, i32 0
  store i32 -559074157, ptr %36, align 8
  %37 = load ptr, ptr %5, align 8
  %38 = getelementptr inbounds nuw %struct.bb_state, ptr %37, i32 0, i32 3
  %39 = load ptr, ptr %38, align 8
  %40 = load i32, ptr %6, align 4
  %41 = sext i32 %40 to i64
  %42 = getelementptr inbounds ptr, ptr %39, i64 %41
  %43 = load ptr, ptr %42, align 8
  %44 = load ptr, ptr %7, align 8
  %45 = getelementptr inbounds nuw %struct.bb_user, ptr %44, i32 0, i32 1
  store ptr %43, ptr %45, align 8
  %46 = load i32, ptr %4, align 4
  %47 = load ptr, ptr %7, align 8
  %48 = getelementptr inbounds nuw %struct.bb_user, ptr %47, i32 0, i32 3
  store i32 %46, ptr %48, align 8
  %49 = load ptr, ptr %7, align 8
  %50 = load ptr, ptr %5, align 8
  %51 = getelementptr inbounds nuw %struct.bb_state, ptr %50, i32 0, i32 3
  %52 = load ptr, ptr %51, align 8
  %53 = load i32, ptr %6, align 4
  %54 = sext i32 %53 to i64
  %55 = getelementptr inbounds ptr, ptr %52, i64 %54
  store ptr %49, ptr %55, align 8
  %56 = load ptr, ptr %7, align 8
  store ptr %56, ptr %3, align 8
  store i32 1, ptr %8, align 4
  br label %57

57:                                               ; preds = %33, %27
  call void @llvm.lifetime.end.p0(i64 8, ptr %7) #9
  call void @llvm.lifetime.end.p0(i64 4, ptr %6) #9
  %58 = load ptr, ptr %3, align 8
  ret ptr %58
}

; Function Attrs: nounwind uwtable
define dso_local void @bb_limit_rem(i32 noundef %0, i64 noundef %1, ptr noundef %2, ptr noundef %3) #0 {
  %5 = alloca i32, align 4
  %6 = alloca i64, align 8
  %7 = alloca ptr, align 8
  %8 = alloca ptr, align 8
  %9 = alloca ptr, align 8
  %10 = alloca ptr, align 8
  %11 = alloca i32, align 4
  store i32 %0, ptr %5, align 4
  store i64 %1, ptr %6, align 8
  store ptr %2, ptr %7, align 8
  store ptr %3, ptr %8, align 8
  call void @llvm.lifetime.start.p0(i64 8, ptr %9) #9
  call void @llvm.lifetime.start.p0(i64 8, ptr %10) #9
  call void @llvm.lifetime.start.p0(i64 4, ptr %11) #9
  %12 = load ptr, ptr %7, align 8
  %13 = icmp ne ptr %12, null
  br i1 %13, label %14, label %22

14:                                               ; preds = %4
  %15 = load ptr, ptr %7, align 8
  %16 = load ptr, ptr %8, align 8
  %17 = getelementptr inbounds nuw %struct.bb_state, ptr %16, i32 0, i32 0
  %18 = getelementptr inbounds nuw %struct.bb_config, ptr %17, i32 0, i32 3
  %19 = load ptr, ptr %18, align 8
  %20 = call i32 @xstrcmp(ptr noundef %15, ptr noundef %19)
  %21 = icmp ne i32 %20, 0
  br i1 %21, label %68, label %22

22:                                               ; preds = %14, %4
  %23 = load ptr, ptr %8, align 8
  %24 = getelementptr inbounds nuw %struct.bb_state, ptr %23, i32 0, i32 18
  %25 = load i64, ptr %24, align 8
  %26 = load i64, ptr %6, align 8
  %27 = icmp uge i64 %25, %26
  br i1 %27, label %28, label %34

28:                                               ; preds = %22
  %29 = load i64, ptr %6, align 8
  %30 = load ptr, ptr %8, align 8
  %31 = getelementptr inbounds nuw %struct.bb_state, ptr %30, i32 0, i32 18
  %32 = load i64, ptr %31, align 8
  %33 = sub i64 %32, %29
  store i64 %33, ptr %31, align 8
  br label %38

34:                                               ; preds = %22
  %35 = call i32 (ptr, ...) @error(ptr noundef @.str.96, ptr noundef @__func__.bb_limit_rem)
  %36 = load ptr, ptr %8, align 8
  %37 = getelementptr inbounds nuw %struct.bb_state, ptr %36, i32 0, i32 18
  store i64 0, ptr %37, align 8
  br label %38

38:                                               ; preds = %34, %28
  %39 = load ptr, ptr %8, align 8
  %40 = getelementptr inbounds nuw %struct.bb_state, ptr %39, i32 0, i32 19
  %41 = load i64, ptr %40, align 8
  %42 = load i64, ptr %6, align 8
  %43 = icmp uge i64 %41, %42
  br i1 %43, label %44, label %50

44:                                               ; preds = %38
  %45 = load i64, ptr %6, align 8
  %46 = load ptr, ptr %8, align 8
  %47 = getelementptr inbounds nuw %struct.bb_state, ptr %46, i32 0, i32 19
  %48 = load i64, ptr %47, align 8
  %49 = sub i64 %48, %45
  store i64 %49, ptr %47, align 8
  br label %67

50:                                               ; preds = %38
  br label %51

51:                                               ; preds = %50
  br label %52

52:                                               ; preds = %51
  %53 = call i32 @get_log_level()
  %54 = icmp sge i32 %53, 6
  br i1 %54, label %55, label %60

55:                                               ; preds = %52
  %56 = load ptr, ptr %8, align 8
  %57 = getelementptr inbounds nuw %struct.bb_state, ptr %56, i32 0, i32 19
  %58 = load i64, ptr %57, align 8
  %59 = load i64, ptr %6, align 8
  call void (i32, ptr, ...) @log_var(i32 noundef 6, ptr noundef @.str.97, ptr noundef @plugin_type, ptr noundef @__func__.bb_limit_rem, i64 noundef %58, i64 noundef %59)
  br label %60

60:                                               ; preds = %55, %52
  br label %61

61:                                               ; preds = %60
  br label %62

62:                                               ; preds = %61
  br label %63

63:                                               ; preds = %62
  br label %64

64:                                               ; preds = %63
  %65 = load ptr, ptr %8, align 8
  %66 = getelementptr inbounds nuw %struct.bb_state, ptr %65, i32 0, i32 19
  store i64 0, ptr %66, align 8
  br label %67

67:                                               ; preds = %64, %44
  br label %148

68:                                               ; preds = %14
  %69 = load ptr, ptr %8, align 8
  %70 = getelementptr inbounds nuw %struct.bb_state, ptr %69, i32 0, i32 0
  %71 = getelementptr inbounds nuw %struct.bb_config, ptr %70, i32 0, i32 13
  %72 = load ptr, ptr %71, align 8
  store ptr %72, ptr %9, align 8
  store i32 0, ptr %11, align 4
  br label %73

73:                                               ; preds = %132, %68
  %74 = load i32, ptr %11, align 4
  %75 = load ptr, ptr %8, align 8
  %76 = getelementptr inbounds nuw %struct.bb_state, ptr %75, i32 0, i32 0
  %77 = getelementptr inbounds nuw %struct.bb_config, ptr %76, i32 0, i32 12
  %78 = load i32, ptr %77, align 8
  %79 = icmp ult i32 %74, %78
  br i1 %79, label %80, label %137

80:                                               ; preds = %73
  %81 = load ptr, ptr %7, align 8
  %82 = load ptr, ptr %9, align 8
  %83 = getelementptr inbounds nuw %struct.burst_buffer_pool_t, ptr %82, i32 0, i32 1
  %84 = load ptr, ptr %83, align 8
  %85 = call i32 @xstrcmp(ptr noundef %81, ptr noundef %84)
  %86 = icmp ne i32 %85, 0
  br i1 %86, label %87, label %88

87:                                               ; preds = %80
  br label %132

88:                                               ; preds = %80
  %89 = load ptr, ptr %9, align 8
  %90 = getelementptr inbounds nuw %struct.burst_buffer_pool_t, ptr %89, i32 0, i32 3
  %91 = load i64, ptr %90, align 8
  %92 = load i64, ptr %6, align 8
  %93 = icmp uge i64 %91, %92
  br i1 %93, label %94, label %100

94:                                               ; preds = %88
  %95 = load i64, ptr %6, align 8
  %96 = load ptr, ptr %9, align 8
  %97 = getelementptr inbounds nuw %struct.burst_buffer_pool_t, ptr %96, i32 0, i32 3
  %98 = load i64, ptr %97, align 8
  %99 = sub i64 %98, %95
  store i64 %99, ptr %97, align 8
  br label %105

100:                                              ; preds = %88
  %101 = load ptr, ptr %7, align 8
  %102 = call i32 (ptr, ...) @error(ptr noundef @.str.98, ptr noundef @__func__.bb_limit_rem, ptr noundef %101)
  %103 = load ptr, ptr %9, align 8
  %104 = getelementptr inbounds nuw %struct.burst_buffer_pool_t, ptr %103, i32 0, i32 3
  store i64 0, ptr %104, align 8
  br label %105

105:                                              ; preds = %100, %94
  %106 = load ptr, ptr %9, align 8
  %107 = getelementptr inbounds nuw %struct.burst_buffer_pool_t, ptr %106, i32 0, i32 4
  %108 = load i64, ptr %107, align 8
  %109 = load i64, ptr %6, align 8
  %110 = icmp uge i64 %108, %109
  br i1 %110, label %111, label %117

111:                                              ; preds = %105
  %112 = load i64, ptr %6, align 8
  %113 = load ptr, ptr %9, align 8
  %114 = getelementptr inbounds nuw %struct.burst_buffer_pool_t, ptr %113, i32 0, i32 4
  %115 = load i64, ptr %114, align 8
  %116 = sub i64 %115, %112
  store i64 %116, ptr %114, align 8
  br label %131

117:                                              ; preds = %105
  br label %118

118:                                              ; preds = %117
  br label %119

119:                                              ; preds = %118
  %120 = call i32 @get_log_level()
  %121 = icmp sge i32 %120, 6
  br i1 %121, label %122, label %124

122:                                              ; preds = %119
  %123 = load ptr, ptr %7, align 8
  call void (i32, ptr, ...) @log_var(i32 noundef 6, ptr noundef @.str.99, ptr noundef @plugin_type, ptr noundef @__func__.bb_limit_rem, ptr noundef %123)
  br label %124

124:                                              ; preds = %122, %119
  br label %125

125:                                              ; preds = %124
  br label %126

126:                                              ; preds = %125
  br label %127

127:                                              ; preds = %126
  br label %128

128:                                              ; preds = %127
  %129 = load ptr, ptr %9, align 8
  %130 = getelementptr inbounds nuw %struct.burst_buffer_pool_t, ptr %129, i32 0, i32 4
  store i64 0, ptr %130, align 8
  br label %131

131:                                              ; preds = %128, %111
  br label %137

132:                                              ; preds = %87
  %133 = load i32, ptr %11, align 4
  %134 = add nsw i32 %133, 1
  store i32 %134, ptr %11, align 4
  %135 = load ptr, ptr %9, align 8
  %136 = getelementptr inbounds nuw %struct.burst_buffer_pool_t, ptr %135, i32 1
  store ptr %136, ptr %9, align 8
  br label %73, !llvm.loop !48

137:                                              ; preds = %131, %73
  %138 = load i32, ptr %11, align 4
  %139 = load ptr, ptr %8, align 8
  %140 = getelementptr inbounds nuw %struct.bb_state, ptr %139, i32 0, i32 0
  %141 = getelementptr inbounds nuw %struct.bb_config, ptr %140, i32 0, i32 12
  %142 = load i32, ptr %141, align 8
  %143 = icmp uge i32 %138, %142
  br i1 %143, label %144, label %147

144:                                              ; preds = %137
  %145 = load ptr, ptr %7, align 8
  %146 = call i32 (ptr, ...) @error(ptr noundef @.str.95, ptr noundef @__func__.bb_limit_rem, ptr noundef %145)
  br label %147

147:                                              ; preds = %144, %137
  br label %148

148:                                              ; preds = %147, %67
  %149 = load i32, ptr %5, align 4
  %150 = load ptr, ptr %8, align 8
  %151 = call ptr @bb_find_user_rec(i32 noundef %149, ptr noundef %150)
  store ptr %151, ptr %10, align 8
  %152 = load ptr, ptr %10, align 8
  %153 = getelementptr inbounds nuw %struct.bb_user, ptr %152, i32 0, i32 2
  %154 = load i64, ptr %153, align 8
  %155 = load i64, ptr %6, align 8
  %156 = icmp uge i64 %154, %155
  br i1 %156, label %157, label %163

157:                                              ; preds = %148
  %158 = load i64, ptr %6, align 8
  %159 = load ptr, ptr %10, align 8
  %160 = getelementptr inbounds nuw %struct.bb_user, ptr %159, i32 0, i32 2
  %161 = load i64, ptr %160, align 8
  %162 = sub i64 %161, %158
  store i64 %162, ptr %160, align 8
  br label %168

163:                                              ; preds = %148
  %164 = load ptr, ptr %10, align 8
  %165 = getelementptr inbounds nuw %struct.bb_user, ptr %164, i32 0, i32 2
  store i64 0, ptr %165, align 8
  %166 = load i32, ptr %5, align 4
  %167 = call i32 (ptr, ...) @error(ptr noundef @.str.100, ptr noundef @__func__.bb_limit_rem, i32 noundef %166)
  br label %168

168:                                              ; preds = %163, %157
  call void @llvm.lifetime.end.p0(i64 4, ptr %11) #9
  call void @llvm.lifetime.end.p0(i64 8, ptr %10) #9
  call void @llvm.lifetime.end.p0(i64 8, ptr %9) #9
  ret void
}