; Function Attrs: nounwind uwtable
define dso_local void @bb_limit_rem(i32 noundef %0, i64 noundef %1, ptr noundef %2, ptr noundef captures(none) %3) local_unnamed_addr #0 {
  %.not = icmp eq ptr %2, null
  br i1 %.not, label %9, label %5

5:                                                ; preds = %4
  %6 = getelementptr inbounds nuw i8, ptr %3, i64 24
  %7 = load ptr, ptr %6, align 8
  %8 = tail call i32 @xstrcmp(ptr noundef nonnull %2, ptr noundef %7) #17
  %.not52 = icmp eq i32 %8, 0
  br i1 %.not52, label %9, label %27

9:                                                ; preds = %5, %4
  %10 = getelementptr inbounds nuw i8, ptr %3, i64 400
  %11 = load i64, ptr %10, align 8
  %.not53 = icmp ult i64 %11, %1
  br i1 %.not53, label %14, label %12

12:                                               ; preds = %9
  %13 = sub nuw i64 %11, %1
  br label %16

14:                                               ; preds = %9
  %15 = tail call i32 (ptr, ...) @error(ptr noundef nonnull @.str.96, ptr noundef nonnull @__func__.bb_limit_rem) #17
  br label %16

16:                                               ; preds = %14, %12
  %storemerge = phi i64 [ 0, %14 ], [ %13, %12 ]
  store i64 %storemerge, ptr %10, align 8
  %17 = getelementptr inbounds nuw i8, ptr %3, i64 408
  %18 = load i64, ptr %17, align 8
  %.not54 = icmp ult i64 %18, %1
  br i1 %.not54, label %21, label %19

19:                                               ; preds = %16
  %20 = sub nuw i64 %18, %1
  store i64 %20, ptr %17, align 8
  br label %59

21:                                               ; preds = %16
  %22 = tail call i32 @get_log_level() #17
  %23 = icmp sgt i32 %22, 5
  br i1 %23, label %24, label %26

24:                                               ; preds = %21
  %25 = load i64, ptr %17, align 8
  tail call void (i32, ptr, ...) @log_var(i32 noundef 6, ptr noundef nonnull @.str.97, ptr noundef nonnull @plugin_type, ptr noundef nonnull @__func__.bb_limit_rem, i64 noundef %25, i64 noundef %1) #17
  br label %26

26:                                               ; preds = %24, %21
  store i64 0, ptr %17, align 8
  br label %59

27:                                               ; preds = %5
  %28 = getelementptr inbounds nuw i8, ptr %3, i64 96
  %29 = load i32, ptr %28, align 8
  %.not68 = icmp eq i32 %29, 0
  br i1 %.not68, label %.loopexit, label %.lr.ph.preheader

.lr.ph.preheader:                                 ; preds = %27
  %30 = getelementptr inbounds nuw i8, ptr %3, i64 104
  %31 = load ptr, ptr %30, align 8
  br label %.lr.ph

.lr.ph:                                           ; preds = %.lr.ph.preheader, %51
  %.067 = phi i32 [ %52, %51 ], [ 0, %.lr.ph.preheader ]
  %.04466 = phi ptr [ %53, %51 ], [ %31, %.lr.ph.preheader ]
  %32 = getelementptr inbounds nuw i8, ptr %.04466, i64 8
  %33 = load ptr, ptr %32, align 8
  %34 = tail call i32 @xstrcmp(ptr noundef nonnull %2, ptr noundef %33) #17
  %.not55 = icmp eq i32 %34, 0
  br i1 %.not55, label %35, label %51

35:                                               ; preds = %.lr.ph
  %36 = getelementptr inbounds nuw i8, ptr %.04466, i64 24
  %37 = load i64, ptr %36, align 8
  %.not56 = icmp ult i64 %37, %1
  br i1 %.not56, label %40, label %38

38:                                               ; preds = %35
  %39 = sub nuw i64 %37, %1
  br label %42

40:                                               ; preds = %35
  %41 = tail call i32 (ptr, ...) @error(ptr noundef nonnull @.str.98, ptr noundef nonnull @__func__.bb_limit_rem, ptr noundef nonnull %2) #17
  br label %42

42:                                               ; preds = %40, %38
  %storemerge57 = phi i64 [ 0, %40 ], [ %39, %38 ]
  store i64 %storemerge57, ptr %36, align 8
  %43 = getelementptr inbounds nuw i8, ptr %.04466, i64 32
  %44 = load i64, ptr %43, align 8
  %.not58 = icmp ult i64 %44, %1
  br i1 %.not58, label %47, label %45

45:                                               ; preds = %42
  %46 = sub nuw i64 %44, %1
  br label %.loopexit.sink.split

47:                                               ; preds = %42
  %48 = tail call i32 @get_log_level() #17
  %49 = icmp sgt i32 %48, 5
  br i1 %49, label %50, label %.loopexit.sink.split

50:                                               ; preds = %47
  tail call void (i32, ptr, ...) @log_var(i32 noundef 6, ptr noundef nonnull @.str.99, ptr noundef nonnull @plugin_type, ptr noundef nonnull @__func__.bb_limit_rem, ptr noundef nonnull %2) #17
  br label %.loopexit.sink.split

51:                                               ; preds = %.lr.ph
  %52 = add nuw nsw i32 %.067, 1
  %53 = getelementptr inbounds nuw i8, ptr %.04466, i64 40
  %54 = load i32, ptr %28, align 8
  %55 = icmp ult i32 %52, %54
  br i1 %55, label %.lr.ph, label %.loopexit, !llvm.loop !48

.loopexit.sink.split:                             ; preds = %47, %50, %45
  %.sink = phi i64 [ %46, %45 ], [ 0, %50 ], [ 0, %47 ]
  store i64 %.sink, ptr %43, align 8
  br label %.loopexit

.loopexit:                                        ; preds = %51, %.loopexit.sink.split, %27
  %.064 = phi i32 [ 0, %27 ], [ %.067, %.loopexit.sink.split ], [ %52, %51 ]
  %56 = load i32, ptr %28, align 8
  %.not59 = icmp ult i32 %.064, %56
  br i1 %.not59, label %59, label %57

57:                                               ; preds = %.loopexit
  %58 = tail call i32 (ptr, ...) @error(ptr noundef nonnull @.str.95, ptr noundef nonnull @__func__.bb_limit_rem, ptr noundef nonnull %2) #17
  br label %59

59:                                               ; preds = %.loopexit, %57, %19, %26
  %60 = urem i32 %0, 100
  %61 = getelementptr inbounds nuw i8, ptr %3, i64 184
  %62 = load ptr, ptr %61, align 8
  %63 = zext nneg i32 %60 to i64
  %64 = getelementptr inbounds nuw ptr, ptr %62, i64 %63
  %.020.i = load ptr, ptr %64, align 8
  %.not21.i = icmp eq ptr %.020.i, null
  br i1 %.not21.i, label %._crit_edge.i, label %.lr.ph.i

.lr.ph.i:                                         ; preds = %59, %68
  %.022.i = phi ptr [ %.0.i, %68 ], [ %.020.i, %59 ]
  %65 = getelementptr inbounds nuw i8, ptr %.022.i, i64 24
  %66 = load i32, ptr %65, align 8
  %67 = icmp eq i32 %66, %0
  br i1 %67, label %bb_find_user_rec.exit, label %68

68:                                               ; preds = %.lr.ph.i
  %69 = getelementptr inbounds nuw i8, ptr %.022.i, i64 8
  %.0.i = load ptr, ptr %69, align 8
  %.not.i = icmp eq ptr %.0.i, null
  br i1 %.not.i, label %._crit_edge.i, label %.lr.ph.i, !llvm.loop !23

._crit_edge.i:                                    ; preds = %68, %59
  %70 = tail call ptr @slurm_xcalloc(i64 noundef 1, i64 noundef 32, i1 noundef zeroext true, i1 noundef zeroext false, ptr noundef nonnull @.str, i32 noundef 315, ptr noundef nonnull @__func__.bb_find_user_rec) #17
  store i32 -559074157, ptr %70, align 8
  %71 = load ptr, ptr %61, align 8
  %72 = getelementptr inbounds nuw ptr, ptr %71, i64 %63
  %73 = load ptr, ptr %72, align 8
  %74 = getelementptr inbounds nuw i8, ptr %70, i64 8
  store ptr %73, ptr %74, align 8
  %75 = getelementptr inbounds nuw i8, ptr %70, i64 24
  store i32 %0, ptr %75, align 8
  %76 = load ptr, ptr %61, align 8
  %77 = getelementptr inbounds nuw ptr, ptr %76, i64 %63
  store ptr %70, ptr %77, align 8
  br label %bb_find_user_rec.exit

bb_find_user_rec.exit:                            ; preds = %.lr.ph.i, %._crit_edge.i
  %.018.i = phi ptr [ %70, %._crit_edge.i ], [ %.022.i, %.lr.ph.i ]
  %78 = getelementptr inbounds nuw i8, ptr %.018.i, i64 16
  %79 = load i64, ptr %78, align 8
  %.not60 = icmp ult i64 %79, %1
  br i1 %.not60, label %82, label %80

80:                                               ; preds = %bb_find_user_rec.exit
  %81 = sub nuw i64 %79, %1
  store i64 %81, ptr %78, align 8
  br label %84

82:                                               ; preds = %bb_find_user_rec.exit
  store i64 0, ptr %78, align 8
  %83 = tail call i32 (ptr, ...) @error(ptr noundef nonnull @.str.100, ptr noundef nonnull @__func__.bb_limit_rem, i32 noundef %0) #17
  br label %84

84:                                               ; preds = %82, %80
  ret void
}